target datalayout = "e-m:e-p270:32:32-p271:32:32-p272:64:64-i64:64-i128:128-f80:128-n8:16:32:64-S128"
target triple = "x86_64-pc-linux-gnu"

%struct.Lexer = type { ptr, ptr, ptr, ptr, i32, i32, ptr, ptr, ptr, %struct.TokenData, %union.SourceSpan, i32, i32 }
%struct.TokenData = type { ptr, i64, %union.anon.86 }
%union.anon.86 = type { %struct.anon.89 }
%struct.anon.89 = type { %struct.Int128_, i8 }
%struct.Int128_ = type { i64, i64 }
%union.SourceSpan = type { i64 }

@.str.112 = private unnamed_addr constant [63 x i8] c"Integer suffix '%c' is not valid for a floating point literal.\00", align 1
@.str.113 = private unnamed_addr constant [41 x i8] c"This doesn't seem to be a valid literal.\00", align 1

; Function Attrs: nounwind uwtable
define internal zeroext i1 @char_is_digit(i8 noundef signext %0) #0 {
  %2 = alloca i8, align 1
  store i8 %0, ptr %2, align 1
  %3 = load i8, ptr %2, align 1
  %4 = sext i8 %3 to i32
  %5 = icmp sge i32 %4, 48
  br i1 %5, label %6, label %10

6:                                                ; preds = %1
  %7 = load i8, ptr %2, align 1
  %8 = sext i8 %7 to i32
  %9 = icmp sle i32 %8, 57
  br label %10

10:                                               ; preds = %6, %1
  %11 = phi i1 [ false, %1 ], [ %9, %6 ]
  ret i1 %11
}

; Function Attrs: nounwind uwtable
define internal zeroext i1 @scan_number_suffix(ptr noundef %0, ptr noundef %1) #0 {
  %3 = alloca ptr, align 8
  %4 = alloca ptr, align 8
  %5 = alloca ptr, align 8
  %6 = alloca ptr, align 8
  %7 = alloca ptr, align 8
  %8 = alloca ptr, align 8
  %9 = alloca ptr, align 8
  %10 = alloca ptr, align 8
  %11 = alloca ptr, align 8
  %12 = alloca i1, align 1
  %13 = alloca ptr, align 8
  %14 = alloca ptr, align 8
  %15 = alloca i8, align 1
  store ptr %0, ptr %13, align 8
  store ptr %1, ptr %14, align 8
  %16 = load ptr, ptr %13, align 8
  %17 = getelementptr inbounds %struct.Lexer, ptr %16, i32 0, i32 3
  %18 = load ptr, ptr %17, align 8
  %19 = load i8, ptr %18, align 1
  store i8 %19, ptr %15, align 1
  %20 = load i8, ptr %15, align 1
  %21 = call zeroext i1 @char_is_alphanum_(i8 noundef signext %20)
  br i1 %21, label %23, label %22

22:                                               ; preds = %2
  store i1 true, ptr %12, align 1
  br label %307

23:                                               ; preds = %2
  %24 = load i8, ptr %15, align 1
  %25 = sext i8 %24 to i32
  %26 = or i32 %25, 32
  switch i32 %26, label %276 [
    i32 108, label %27
    i32 117, label %61
    i32 105, label %156
    i32 102, label %220
  ]

27:                                               ; preds = %23
  %28 = load ptr, ptr %13, align 8
  store ptr %28, ptr %3, align 8
  %29 = load ptr, ptr %3, align 8
  %30 = getelementptr inbounds %struct.Lexer, ptr %29, i32 0, i32 3
  %31 = load ptr, ptr %30, align 8
  %32 = load i8, ptr %31, align 1
  %33 = sext i8 %32 to i32
  %34 = icmp eq i32 %33, 10
  br i1 %34, label %35, label %46

35:                                               ; preds = %27
  %36 = load ptr, ptr %3, align 8
  %37 = getelementptr inbounds %struct.Lexer, ptr %36, i32 0, i32 3
  %38 = load ptr, ptr %37, align 8
  %39 = getelementptr inbounds i8, ptr %38, i64 1
  %40 = load ptr, ptr %3, align 8
  %41 = getelementptr inbounds %struct.Lexer, ptr %40, i32 0, i32 6
  store ptr %39, ptr %41, align 8
  %42 = load ptr, ptr %3, align 8
  %43 = getelementptr inbounds %struct.Lexer, ptr %42, i32 0, i32 4
  %44 = load i32, ptr %43, align 8
  %45 = add i32 %44, 1
  store i32 %45, ptr %43, align 8
  br label %46

46:                                               ; preds = %35, %27
  %47 = load ptr, ptr %3, align 8
  %48 = getelementptr inbounds %struct.Lexer, ptr %47, i32 0, i32 3
  %49 = load ptr, ptr %48, align 8
  %50 = getelementptr inbounds i8, ptr %49, i32 1
  store ptr %50, ptr %48, align 8
  %51 = load i8, ptr %50, align 1
  store i8 %51, ptr %15, align 1
  %52 = load ptr, ptr %14, align 8
  %53 = load i8, ptr %52, align 1
  %54 = trunc i8 %53 to i1
  br i1 %54, label %55, label %60

55:                                               ; preds = %46
  %56 = load ptr, ptr %13, align 8
  %57 = load i8, ptr %15, align 1
  %58 = sext i8 %57 to i32
  %59 = call zeroext i1 (ptr, ptr, ...) @add_error_token_at_current(ptr noundef %56, ptr noundef @.str.112, i32 noundef %58)
  store i1 %59, ptr %12, align 1
  br label %307

60:                                               ; preds = %46
  br label %277

61:                                               ; preds = %23
  %62 = load ptr, ptr %14, align 8
  %63 = load i8, ptr %62, align 1
  %64 = trunc i8 %63 to i1
  br i1 %64, label %65, label %70

65:                                               ; preds = %61
  %66 = load ptr, ptr %13, align 8
  %67 = load i8, ptr %15, align 1
  %68 = sext i8 %67 to i32
  %69 = call zeroext i1 (ptr, ptr, ...) @add_error_token_at_current(ptr noundef %66, ptr noundef @.str.112, i32 noundef %68)
  store i1 %69, ptr %12, align 1
  br label %307

70:                                               ; preds = %61
  %71 = load ptr, ptr %13, align 8
  store ptr %71, ptr %4, align 8
  %72 = load ptr, ptr %4, align 8
  %73 = getelementptr inbounds %struct.Lexer, ptr %72, i32 0, i32 3
  %74 = load ptr, ptr %73, align 8
  %75 = load i8, ptr %74, align 1
  %76 = sext i8 %75 to i32
  %77 = icmp eq i32 %76, 10
  br i1 %77, label %78, label %89

78:                                               ; preds = %70
  %79 = load ptr, ptr %4, align 8
  %80 = getelementptr inbounds %struct.Lexer, ptr %79, i32 0, i32 3
  %81 = load ptr, ptr %80, align 8
  %82 = getelementptr inbounds i8, ptr %81, i64 1
  %83 = load ptr, ptr %4, align 8
  %84 = getelementptr inbounds %struct.Lexer, ptr %83, i32 0, i32 6
  store ptr %82, ptr %84, align 8
  %85 = load ptr, ptr %4, align 8
  %86 = getelementptr inbounds %struct.Lexer, ptr %85, i32 0, i32 4
  %87 = load i32, ptr %86, align 8
  %88 = add i32 %87, 1
  store i32 %88, ptr %86, align 8
  br label %89

89:                                               ; preds = %78, %70
  %90 = load ptr, ptr %4, align 8
  %91 = getelementptr inbounds %struct.Lexer, ptr %90, i32 0, i32 3
  %92 = load ptr, ptr %91, align 8
  %93 = getelementptr inbounds i8, ptr %92, i32 1
  store ptr %93, ptr %91, align 8
  %94 = load i8, ptr %93, align 1
  store i8 %94, ptr %15, align 1
  %95 = load i8, ptr %15, align 1
  %96 = sext i8 %95 to i32
  %97 = or i32 %96, 32
  %98 = icmp eq i32 %97, 108
  br i1 %98, label %99, label %124

99:                                               ; preds = %89
  %100 = load ptr, ptr %13, align 8
  store ptr %100, ptr %5, align 8
  %101 = load ptr, ptr %5, align 8
  %102 = getelementptr inbounds %struct.Lexer, ptr %101, i32 0, i32 3
  %103 = load ptr, ptr %102, align 8
  %104 = load i8, ptr %103, align 1
  %105 = sext i8 %104 to i32
  %106 = icmp eq i32 %105, 10
  br i1 %106, label %107, label %118

107:                                              ; preds = %99
  %108 = load ptr, ptr %5, align 8
  %109 = getelementptr inbounds %struct.Lexer, ptr %108, i32 0, i32 3
  %110 = load ptr, ptr %109, align 8
  %111 = getelementptr inbounds i8, ptr %110, i64 1
  %112 = load ptr, ptr %5, align 8
  %113 = getelementptr inbounds %struct.Lexer, ptr %112, i32 0, i32 6
  store ptr %111, ptr %113, align 8
  %114 = load ptr, ptr %5, align 8
  %115 = getelementptr inbounds %struct.Lexer, ptr %114, i32 0, i32 4
  %116 = load i32, ptr %115, align 8
  %117 = add i32 %116, 1
  store i32 %117, ptr %115, align 8
  br label %118

118:                                              ; preds = %107, %99
  %119 = load ptr, ptr %5, align 8
  %120 = getelementptr inbounds %struct.Lexer, ptr %119, i32 0, i32 3
  %121 = load ptr, ptr %120, align 8
  %122 = getelementptr inbounds i8, ptr %121, i32 1
  store ptr %122, ptr %120, align 8
  %123 = load i8, ptr %122, align 1
  store i8 %123, ptr %15, align 1
  br label %277

124:                                              ; preds = %89
  br label %125

125:                                              ; preds = %150, %124
  %126 = load ptr, ptr %13, align 8
  %127 = getelementptr inbounds %struct.Lexer, ptr %126, i32 0, i32 3
  %128 = load ptr, ptr %127, align 8
  %129 = load i8, ptr %128, align 1
  store i8 %129, ptr %15, align 1
  %130 = call zeroext i1 @char_is_digit(i8 noundef signext %129)
  br i1 %130, label %131, label %155

131:                                              ; preds = %125
  %132 = load ptr, ptr %13, align 8
  store ptr %132, ptr %6, align 8
  %133 = load ptr, ptr %6, align 8
  %134 = getelementptr inbounds %struct.Lexer, ptr %133, i32 0, i32 3
  %135 = load ptr, ptr %134, align 8
  %136 = load i8, ptr %135, align 1
  %137 = sext i8 %136 to i32
  %138 = icmp eq i32 %137, 10
  br i1 %138, label %139, label %150

139:                                              ; preds = %131
  %140 = load ptr, ptr %6, align 8
  %141 = getelementptr inbounds %struct.Lexer, ptr %140, i32 0, i32 3
  %142 = load ptr, ptr %141, align 8
  %143 = getelementptr inbounds i8, ptr %142, i64 1
  %144 = load ptr, ptr %6, align 8
  %145 = getelementptr inbounds %struct.Lexer, ptr %144, i32 0, i32 6
  store ptr %143, ptr %145, align 8
  %146 = load ptr, ptr %6, align 8
  %147 = getelementptr inbounds %struct.Lexer, ptr %146, i32 0, i32 4
  %148 = load i32, ptr %147, align 8
  %149 = add i32 %148, 1
  store i32 %149, ptr %147, align 8
  br label %150

150:                                              ; preds = %139, %131
  %151 = load ptr, ptr %6, align 8
  %152 = getelementptr inbounds %struct.Lexer, ptr %151, i32 0, i32 3
  %153 = load ptr, ptr %152, align 8
  %154 = getelementptr inbounds i8, ptr %153, i32 1
  store ptr %154, ptr %152, align 8
  br label %125, !llvm.loop !32

155:                                              ; preds = %125
  br label %277

156:                                              ; preds = %23
  %157 = load ptr, ptr %14, align 8
  %158 = load i8, ptr %157, align 1
  %159 = trunc i8 %158 to i1
  br i1 %159, label %160, label %165

160:                                              ; preds = %156
  %161 = load ptr, ptr %13, align 8
  %162 = load i8, ptr %15, align 1
  %163 = sext i8 %162 to i32
  %164 = call zeroext i1 (ptr, ptr, ...) @add_error_token_at_current(ptr noundef %161, ptr noundef @.str.112, i32 noundef %163)
  store i1 %164, ptr %12, align 1
  br label %307

165:                                              ; preds = %156
  %166 = load ptr, ptr %13, align 8
  store ptr %166, ptr %7, align 8
  %167 = load ptr, ptr %7, align 8
  %168 = getelementptr inbounds %struct.Lexer, ptr %167, i32 0, i32 3
  %169 = load ptr, ptr %168, align 8
  %170 = load i8, ptr %169, align 1
  %171 = sext i8 %170 to i32
  %172 = icmp eq i32 %171, 10
  br i1 %172, label %173, label %184

173:                                              ; preds = %165
  %174 = load ptr, ptr %7, align 8
  %175 = getelementptr inbounds %struct.Lexer, ptr %174, i32 0, i32 3
  %176 = load ptr, ptr %175, align 8
  %177 = getelementptr inbounds i8, ptr %176, i64 1
  %178 = load ptr, ptr %7, align 8
  %179 = getelementptr inbounds %struct.Lexer, ptr %178, i32 0, i32 6
  store ptr %177, ptr %179, align 8
  %180 = load ptr, ptr %7, align 8
  %181 = getelementptr inbounds %struct.Lexer, ptr %180, i32 0, i32 4
  %182 = load i32, ptr %181, align 8
  %183 = add i32 %182, 1
  store i32 %183, ptr %181, align 8
  br label %184

184:                                              ; preds = %173, %165
  %185 = load ptr, ptr %7, align 8
  %186 = getelementptr inbounds %struct.Lexer, ptr %185, i32 0, i32 3
  %187 = load ptr, ptr %186, align 8
  %188 = getelementptr inbounds i8, ptr %187, i32 1
  store ptr %188, ptr %186, align 8
  br label %189

189:                                              ; preds = %214, %184
  %190 = load ptr, ptr %13, align 8
  %191 = getelementptr inbounds %struct.Lexer, ptr %190, i32 0, i32 3
  %192 = load ptr, ptr %191, align 8
  %193 = load i8, ptr %192, align 1
  store i8 %193, ptr %15, align 1
  %194 = call zeroext i1 @char_is_digit(i8 noundef signext %193)
  br i1 %194, label %195, label %219

195:                                              ; preds = %189
  %196 = load ptr, ptr %13, align 8
  store ptr %196, ptr %8, align 8
  %197 = load ptr, ptr %8, align 8
  %198 = getelementptr inbounds %struct.Lexer, ptr %197, i32 0, i32 3
  %199 = load ptr, ptr %198, align 8
  %200 = load i8, ptr %199, align 1
  %201 = sext i8 %200 to i32
  %202 = icmp eq i32 %201, 10
  br i1 %202, label %203, label %214

203:                                              ; preds = %195
  %204 = load ptr, ptr %8, align 8
  %205 = getelementptr inbounds %struct.Lexer, ptr %204, i32 0, i32 3
  %206 = load ptr, ptr %205, align 8
  %207 = getelementptr inbounds i8, ptr %206, i64 1
  %208 = load ptr, ptr %8, align 8
  %209 = getelementptr inbounds %struct.Lexer, ptr %208, i32 0, i32 6
  store ptr %207, ptr %209, align 8
  %210 = load ptr, ptr %8, align 8
  %211 = getelementptr inbounds %struct.Lexer, ptr %210, i32 0, i32 4
  %212 = load i32, ptr %211, align 8
  %213 = add i32 %212, 1
  store i32 %213, ptr %211, align 8
  br label %214

214:                                              ; preds = %203, %195
  %215 = load ptr, ptr %8, align 8
  %216 = getelementptr inbounds %struct.Lexer, ptr %215, i32 0, i32 3
  %217 = load ptr, ptr %216, align 8
  %218 = getelementptr inbounds i8, ptr %217, i32 1
  store ptr %218, ptr %216, align 8
  br label %189, !llvm.loop !33

219:                                              ; preds = %189
  br label %277

220:                                              ; preds = %23
  %221 = load ptr, ptr %13, align 8
  store ptr %221, ptr %9, align 8
  %222 = load ptr, ptr %9, align 8
  %223 = getelementptr inbounds %struct.Lexer, ptr %222, i32 0, i32 3
  %224 = load ptr, ptr %223, align 8
  %225 = load i8, ptr %224, align 1
  %226 = sext i8 %225 to i32
  %227 = icmp eq i32 %226, 10
  br i1 %227, label %228, label %239

228:                                              ; preds = %220
  %229 = load ptr, ptr %9, align 8
  %230 = getelementptr inbounds %struct.Lexer, ptr %229, i32 0, i32 3
  %231 = load ptr, ptr %230, align 8
  %232 = getelementptr inbounds i8, ptr %231, i64 1
  %233 = load ptr, ptr %9, align 8
  %234 = getelementptr inbounds %struct.Lexer, ptr %233, i32 0, i32 6
  store ptr %232, ptr %234, align 8
  %235 = load ptr, ptr %9, align 8
  %236 = getelementptr inbounds %struct.Lexer, ptr %235, i32 0, i32 4
  %237 = load i32, ptr %236, align 8
  %238 = add i32 %237, 1
  store i32 %238, ptr %236, align 8
  br label %239

239:                                              ; preds = %228, %220
  %240 = load ptr, ptr %9, align 8
  %241 = getelementptr inbounds %struct.Lexer, ptr %240, i32 0, i32 3
  %242 = load ptr, ptr %241, align 8
  %243 = getelementptr inbounds i8, ptr %242, i32 1
  store ptr %243, ptr %241, align 8
  %244 = load ptr, ptr %14, align 8
  store i8 1, ptr %244, align 1
  br label %245

245:                                              ; preds = %270, %239
  %246 = load ptr, ptr %13, align 8
  %247 = getelementptr inbounds %struct.Lexer, ptr %246, i32 0, i32 3
  %248 = load ptr, ptr %247, align 8
  %249 = load i8, ptr %248, align 1
  store i8 %249, ptr %15, align 1
  %250 = call zeroext i1 @char_is_digit(i8 noundef signext %249)
  br i1 %250, label %251, label %275

251:                                              ; preds = %245
  %252 = load ptr, ptr %13, align 8
  store ptr %252, ptr %10, align 8
  %253 = load ptr, ptr %10, align 8
  %254 = getelementptr inbounds %struct.Lexer, ptr %253, i32 0, i32 3
  %255 = load ptr, ptr %254, align 8
  %256 = load i8, ptr %255, align 1
  %257 = sext i8 %256 to i32
  %258 = icmp eq i32 %257, 10
  br i1 %258, label %259, label %270

259:                                              ; preds = %251
  %260 = load ptr, ptr %10, align 8
  %261 = getelementptr inbounds %struct.Lexer, ptr %260, i32 0, i32 3
  %262 = load ptr, ptr %261, align 8
  %263 = getelementptr inbounds i8, ptr %262, i64 1
  %264 = load ptr, ptr %10, align 8
  %265 = getelementptr inbounds %struct.Lexer, ptr %264, i32 0, i32 6
  store ptr %263, ptr %265, align 8
  %266 = load ptr, ptr %10, align 8
  %267 = getelementptr inbounds %struct.Lexer, ptr %266, i32 0, i32 4
  %268 = load i32, ptr %267, align 8
  %269 = add i32 %268, 1
  store i32 %269, ptr %267, align 8
  br label %270

270:                                              ; preds = %259, %251
  %271 = load ptr, ptr %10, align 8
  %272 = getelementptr inbounds %struct.Lexer, ptr %271, i32 0, i32 3
  %273 = load ptr, ptr %272, align 8
  %274 = getelementptr inbounds i8, ptr %273, i32 1
  store ptr %274, ptr %272, align 8
  br label %245, !llvm.loop !34

275:                                              ; preds = %245
  br label %277

276:                                              ; preds = %23
  br label %277

277:                                              ; preds = %276, %275, %219, %155, %118, %60
  %278 = load i8, ptr %15, align 1
  %279 = call zeroext i1 @char_is_alphanum_(i8 noundef signext %278)
  br i1 %279, label %280, label %306

280:                                              ; preds = %277
  %281 = load ptr, ptr %13, align 8
  store ptr %281, ptr %11, align 8
  %282 = load ptr, ptr %11, align 8
  %283 = getelementptr inbounds %struct.Lexer, ptr %282, i32 0, i32 3
  %284 = load ptr, ptr %283, align 8
  %285 = load i8, ptr %284, align 1
  %286 = sext i8 %285 to i32
  %287 = icmp eq i32 %286, 10
  br i1 %287, label %288, label %299

288:                                              ; preds = %280
  %289 = load ptr, ptr %11, align 8
  %290 = getelementptr inbounds %struct.Lexer, ptr %289, i32 0, i32 3
  %291 = load ptr, ptr %290, align 8
  %292 = getelementptr inbounds i8, ptr %291, i64 1
  %293 = load ptr, ptr %11, align 8
  %294 = getelementptr inbounds %struct.Lexer, ptr %293, i32 0, i32 6
  store ptr %292, ptr %294, align 8
  %295 = load ptr, ptr %11, align 8
  %296 = getelementptr inbounds %struct.Lexer, ptr %295, i32 0, i32 4
  %297 = load i32, ptr %296, align 8
  %298 = add i32 %297, 1
  store i32 %298, ptr %296, align 8
  br label %299

299:                                              ; preds = %288, %280
  %300 = load ptr, ptr %11, align 8
  %301 = getelementptr inbounds %struct.Lexer, ptr %300, i32 0, i32 3
  %302 = load ptr, ptr %301, align 8
  %303 = getelementptr inbounds i8, ptr %302, i32 1
  store ptr %303, ptr %301, align 8
  %304 = load ptr, ptr %13, align 8
  %305 = call zeroext i1 (ptr, ptr, ...) @add_error_token(ptr noundef %304, ptr noundef @.str.113)
  store i1 %305, ptr %12, align 1
  br label %307

306:                                              ; preds = %277
  store i1 true, ptr %12, align 1
  br label %307

307:                                              ; preds = %306, %299, %160, %65, %55, %22
  %308 = load i1, ptr %12, align 1
  ret i1 %308
}