; Function Attrs: nounwind uwtable
define internal fastcc noundef zeroext i1 @scan_number_suffix(ptr nocapture noundef %0, ptr nocapture noundef %1) unnamed_addr #0 {
  %3 = getelementptr inbounds i8, ptr %0, i64 24
  %4 = load ptr, ptr %3, align 8
  %5 = load i8, ptr %4, align 1
  %6 = tail call fastcc zeroext i1 @char_is_alphanum_(i8 noundef signext %5)
  br i1 %6, label %7, label %99

7:                                                ; preds = %2
  %8 = sext i8 %5 to i32
  %9 = or i32 %8, 32
  switch i32 %9, label %.loopexit [
    i32 108, label %10
    i32 117, label %25
    i32 105, label %52
    i32 102, label %68
  ]

10:                                               ; preds = %7
  %11 = icmp eq i8 %5, 10
  br i1 %11, label %12, label %18

12:                                               ; preds = %10
  %13 = getelementptr inbounds i8, ptr %4, i64 1
  %14 = getelementptr inbounds i8, ptr %0, i64 40
  store ptr %13, ptr %14, align 8
  %15 = getelementptr inbounds i8, ptr %0, i64 32
  %16 = load i32, ptr %15, align 8
  %17 = add i32 %16, 1
  store i32 %17, ptr %15, align 8
  br label %18

18:                                               ; preds = %12, %10
  %19 = getelementptr inbounds i8, ptr %4, i64 1
  store ptr %19, ptr %3, align 8
  %20 = load i8, ptr %19, align 1
  %21 = load i8, ptr %1, align 1
  %22 = trunc i8 %21 to i1
  br i1 %22, label %23, label %.loopexit

23:                                               ; preds = %18
  %24 = sext i8 %20 to i32
  tail call void (ptr, ptr, ...) @add_error_token_at_current(ptr noundef nonnull %0, ptr noundef nonnull @.str.112, i32 noundef %24)
  br label %99

25:                                               ; preds = %7
  %26 = load i8, ptr %1, align 1
  %27 = trunc i8 %26 to i1
  br i1 %27, label %28, label %29

28:                                               ; preds = %25
  tail call void (ptr, ptr, ...) @add_error_token_at_current(ptr noundef nonnull %0, ptr noundef nonnull @.str.112, i32 noundef %8)
  br label %99

29:                                               ; preds = %25
  %30 = icmp eq i8 %5, 10
  br i1 %30, label %31, label %37

31:                                               ; preds = %29
  %32 = getelementptr inbounds i8, ptr %4, i64 1
  %33 = getelementptr inbounds i8, ptr %0, i64 40
  store ptr %32, ptr %33, align 8
  %34 = getelementptr inbounds i8, ptr %0, i64 32
  %35 = load i32, ptr %34, align 8
  %36 = add i32 %35, 1
  store i32 %36, ptr %34, align 8
  br label %37

37:                                               ; preds = %31, %29
  %38 = getelementptr inbounds i8, ptr %4, i64 1
  store ptr %38, ptr %3, align 8
  %39 = load i8, ptr %38, align 1
  %40 = and i8 %39, -33
  %41 = icmp eq i8 %40, 76
  br i1 %41, label %44, label %.preheader

.preheader:                                       ; preds = %37
  %42 = add i8 %39, -48
  %43 = icmp ult i8 %42, 10
  br i1 %43, label %.lr.ph81, label %.loopexit

44:                                               ; preds = %37
  %45 = getelementptr inbounds i8, ptr %4, i64 2
  store ptr %45, ptr %3, align 8
  %46 = load i8, ptr %45, align 1
  br label %.loopexit

.lr.ph81:                                         ; preds = %.preheader, %.lr.ph81
  %47 = phi ptr [ %48, %.lr.ph81 ], [ %38, %.preheader ]
  %48 = getelementptr inbounds i8, ptr %47, i64 1
  store ptr %48, ptr %3, align 8
  %49 = load i8, ptr %48, align 1
  %50 = add i8 %49, -48
  %51 = icmp ult i8 %50, 10
  br i1 %51, label %.lr.ph81, label %.loopexit, !llvm.loop !38

52:                                               ; preds = %7
  %53 = load i8, ptr %1, align 1
  %54 = trunc i8 %53 to i1
  br i1 %54, label %55, label %56

55:                                               ; preds = %52
  tail call void (ptr, ptr, ...) @add_error_token_at_current(ptr noundef nonnull %0, ptr noundef nonnull @.str.112, i32 noundef %8)
  br label %99

56:                                               ; preds = %52
  %57 = icmp eq i8 %5, 10
  br i1 %57, label %58, label %.preheader100

58:                                               ; preds = %56
  %59 = getelementptr inbounds i8, ptr %4, i64 1
  %60 = getelementptr inbounds i8, ptr %0, i64 40
  store ptr %59, ptr %60, align 8
  %61 = getelementptr inbounds i8, ptr %0, i64 32
  %62 = load i32, ptr %61, align 8
  %63 = add i32 %62, 1
  store i32 %63, ptr %61, align 8
  br label %.preheader100

.preheader100:                                    ; preds = %58, %56
  br label %64

64:                                               ; preds = %.preheader100, %64
  %.pn79 = phi ptr [ %storemerge, %64 ], [ %4, %.preheader100 ]
  %storemerge = getelementptr inbounds i8, ptr %.pn79, i64 1
  store ptr %storemerge, ptr %3, align 8
  %65 = load i8, ptr %storemerge, align 1
  %66 = add i8 %65, -48
  %67 = icmp ult i8 %66, 10
  br i1 %67, label %64, label %.loopexit, !llvm.loop !39

68:                                               ; preds = %7
  %69 = icmp eq i8 %5, 10
  br i1 %69, label %70, label %76

70:                                               ; preds = %68
  %71 = getelementptr inbounds i8, ptr %4, i64 1
  %72 = getelementptr inbounds i8, ptr %0, i64 40
  store ptr %71, ptr %72, align 8
  %73 = getelementptr inbounds i8, ptr %0, i64 32
  %74 = load i32, ptr %73, align 8
  %75 = add i32 %74, 1
  store i32 %75, ptr %73, align 8
  br label %76

76:                                               ; preds = %70, %68
  %77 = getelementptr inbounds i8, ptr %4, i64 1
  store ptr %77, ptr %3, align 8
  store i8 1, ptr %1, align 1
  %.promoted = load ptr, ptr %3, align 8
  %78 = load i8, ptr %.promoted, align 1
  %79 = add i8 %78, -48
  %80 = icmp ult i8 %79, 10
  br i1 %80, label %.lr.ph, label %.loopexit

.lr.ph:                                           ; preds = %76, %.lr.ph
  %81 = phi ptr [ %82, %.lr.ph ], [ %.promoted, %76 ]
  %82 = getelementptr inbounds i8, ptr %81, i64 1
  store ptr %82, ptr %3, align 8
  %83 = load i8, ptr %82, align 1
  %84 = add i8 %83, -48
  %85 = icmp ult i8 %84, 10
  br i1 %85, label %.lr.ph, label %.loopexit, !llvm.loop !40

.loopexit:                                        ; preds = %.lr.ph, %64, %.lr.ph81, %76, %.preheader, %7, %18, %44
  %86 = phi ptr [ %4, %7 ], [ %45, %44 ], [ %19, %18 ], [ %38, %.preheader ], [ %.promoted, %76 ], [ %48, %.lr.ph81 ], [ %storemerge, %64 ], [ %82, %.lr.ph ]
  %87 = phi i8 [ %5, %7 ], [ %46, %44 ], [ %20, %18 ], [ %39, %.preheader ], [ %78, %76 ], [ %49, %.lr.ph81 ], [ %65, %64 ], [ %83, %.lr.ph ]
  %88 = tail call fastcc zeroext i1 @char_is_alphanum_(i8 noundef signext %87)
  br i1 %88, label %89, label %99

89:                                               ; preds = %.loopexit
  %90 = icmp eq i8 %87, 10
  br i1 %90, label %91, label %97

91:                                               ; preds = %89
  %92 = getelementptr inbounds i8, ptr %86, i64 1
  %93 = getelementptr inbounds i8, ptr %0, i64 40
  store ptr %92, ptr %93, align 8
  %94 = getelementptr inbounds i8, ptr %0, i64 32
  %95 = load i32, ptr %94, align 8
  %96 = add i32 %95, 1
  store i32 %96, ptr %94, align 8
  br label %97

97:                                               ; preds = %91, %89
  %98 = getelementptr inbounds i8, ptr %86, i64 1
  store ptr %98, ptr %3, align 8
  tail call void (ptr, ptr, ...) @add_error_token(ptr noundef nonnull %0, ptr noundef nonnull @.str.113)
  br label %99

99:                                               ; preds = %.loopexit, %2, %97, %55, %28, %23
  %.073 = phi i1 [ false, %97 ], [ false, %55 ], [ false, %28 ], [ false, %23 ], [ true, %2 ], [ true, %.loopexit ]
  ret i1 %.073
}